target datalayout = "e-m:e-p270:32:32-p271:32:32-p272:64:64-i64:64-i128:128-f80:128-n8:16:32:64-S128"
target triple = "x86_64-pc-linux-gnu"

%struct.AVFormatContext = type { ptr, ptr, ptr, ptr, ptr, i32, i32, ptr, i32, ptr, i32, ptr, ptr, i64, i64, i64, i32, i32, i32, i64, i64, ptr, i32, i32, ptr, i32, i32, i32, i32, ptr, i64, i32, i32, %struct.AVIOInterruptCB, i32, i32, i32, i32, i64, i32, i32, i32, i32, i32, i32, i32, i32, i32, i32, i32, i32, i64, i32, i32, i32, i32, i32, ptr, ptr, ptr, ptr, i32, ptr, ptr, ptr, ptr, i32, ptr, ptr, i64, ptr, ptr, ptr, i64 }
%struct.AVIOInterruptCB = type { ptr, ptr }
%struct.SeqDemuxContext = type { i32, i32, i32, i32, [30 x %struct.TiertexSeqFrameBuffer], i32, i32, i32, i32, i32, i32, ptr, i32 }
%struct.TiertexSeqFrameBuffer = type { i32, i32, ptr }

; Function Attrs: nounwind uwtable
define internal i32 @seq_read_close(ptr noundef %0) #0 {
  %2 = alloca ptr, align 8
  %3 = alloca i32, align 4
  %4 = alloca ptr, align 8
  store ptr %0, ptr %2, align 8, !tbaa !18
  call void @llvm.lifetime.start.p0(i64 4, ptr %3) #4
  call void @llvm.lifetime.start.p0(i64 8, ptr %4) #4
  %5 = load ptr, ptr %2, align 8, !tbaa !18
  %6 = getelementptr inbounds nuw %struct.AVFormatContext, ptr %5, i32 0, i32 3
  %7 = load ptr, ptr %6, align 8, !tbaa !20
  store ptr %7, ptr %4, align 8, !tbaa !35
  store i32 0, ptr %3, align 4, !tbaa !13
  br label %8

8:                                                ; preds = %18, %1
  %9 = load i32, ptr %3, align 4, !tbaa !13
  %10 = icmp slt i32 %9, 30
  br i1 %10, label %11, label %21

11:                                               ; preds = %8
  %12 = load ptr, ptr %4, align 8, !tbaa !35
  %13 = getelementptr inbounds nuw %struct.SeqDemuxContext, ptr %12, i32 0, i32 4
  %14 = load i32, ptr %3, align 4, !tbaa !13
  %15 = sext i32 %14 to i64
  %16 = getelementptr inbounds [30 x %struct.TiertexSeqFrameBuffer], ptr %13, i64 0, i64 %15
  %17 = getelementptr inbounds nuw %struct.TiertexSeqFrameBuffer, ptr %16, i32 0, i32 2
  call void @av_freep(ptr noundef %17)
  br label %18

18:                                               ; preds = %11
  %19 = load i32, ptr %3, align 4, !tbaa !13
  %20 = add nsw i32 %19, 1
  store i32 %20, ptr %3, align 4, !tbaa !13
  br label %8, !llvm.loop !85

21:                                               ; preds = %8
  call void @llvm.lifetime.end.p0(i64 8, ptr %4) #4
  call void @llvm.lifetime.end.p0(i64 4, ptr %3) #4
  ret i32 0
}